target datalayout = "e-m:e-p270:32:32-p271:32:32-p272:64:64-i64:64-i128:128-f80:128-n8:16:32:64-S128"
target triple = "x86_64-pc-linux-gnu"

@hf_sysact_res = internal global i32 0, align 4
@hf_sysact_spsysprop_sid = internal global i32 0, align 4
@hf_sysact_spsysprop_remotethissid = internal global i32 0, align 4
@hf_sysact_spsysprop_cltimpersonating = internal global i32 0, align 4
@hf_sysact_spsysprop_partitionid = internal global i32 0, align 4
@hf_sysact_spsysprop_defauthlvl = internal global i32 0, align 4
@hf_sysact_spsysprop_partition = internal global i32 0, align 4
@hf_sysact_spsysprop_procrqstflgs = internal global i32 0, align 4
@hf_sysact_spsysprop_origclsctx = internal global i32 0, align 4
@hf_sysact_spsysprop_flags = internal global i32 0, align 4
@hf_sysact_unused_buffer = internal global i32 0, align 4
@ett_dcom_spclsysprop = internal global i32 0, align 4
@ett_dcom_reserved = internal global i32 0, align 4
@.str.157 = private unnamed_addr constant [24 x i8] c"SpecialSystemProperties\00", align 1
@.str.158 = private unnamed_addr constant [19 x i8] c"Reserved: 8 DWORDs\00", align 1

; Function Attrs: null_pointer_is_valid sspstrong uwtable
define internal i32 @dissect_dcom_SpecialSystemProperties(ptr noundef %0, i32 noundef %1, ptr noundef %2, ptr noundef %3, ptr noundef %4, ptr noundef %5, i32 noundef %6) #0 {
  %8 = alloca ptr, align 8
  %9 = alloca i32, align 4
  %10 = alloca ptr, align 8
  %11 = alloca ptr, align 8
  %12 = alloca ptr, align 8
  %13 = alloca ptr, align 8
  %14 = alloca i32, align 4
  %15 = alloca ptr, align 8
  %16 = alloca ptr, align 8
  %17 = alloca i32, align 4
  %18 = alloca i32, align 4
  %19 = alloca i32, align 4
  store ptr %0, ptr %8, align 8
  store i32 %1, ptr %9, align 4
  store ptr %2, ptr %10, align 8
  store ptr %3, ptr %11, align 8
  store ptr %4, ptr %12, align 8
  store ptr %5, ptr %13, align 8
  store i32 %6, ptr %14, align 4
  call void @llvm.lifetime.start.p0(i64 8, ptr %15) #5
  call void @llvm.lifetime.start.p0(i64 8, ptr %16) #5
  call void @llvm.lifetime.start.p0(i64 4, ptr %17) #5
  call void @llvm.lifetime.start.p0(i64 4, ptr %18) #5
  call void @llvm.lifetime.start.p0(i64 4, ptr %19) #5
  %20 = load i32, ptr %9, align 4
  store i32 %20, ptr %17, align 4
  %21 = load i32, ptr %14, align 4
  %22 = icmp sle i32 %21, 0
  br i1 %22, label %23, label %24

23:                                               ; preds = %7
  store i32 -1, ptr %14, align 4
  br label %24

24:                                               ; preds = %23, %7
  %25 = load ptr, ptr %11, align 8
  %26 = load ptr, ptr %8, align 8
  %27 = load i32, ptr %9, align 4
  %28 = load i32, ptr %14, align 4
  %29 = load i32, ptr @ett_dcom_spclsysprop, align 4
  %30 = call ptr @proto_tree_add_subtree(ptr noundef %25, ptr noundef %26, i32 noundef %27, i32 noundef %28, i32 noundef %29, ptr noundef null, ptr noundef @.str.157)
  store ptr %30, ptr %15, align 8
  %31 = load ptr, ptr %8, align 8
  %32 = load i32, ptr %9, align 4
  %33 = load ptr, ptr %10, align 8
  %34 = load ptr, ptr %15, align 8
  %35 = load ptr, ptr %12, align 8
  %36 = load ptr, ptr %13, align 8
  %37 = call i32 @dissect_TypeSzCommPrivHdr(ptr noundef %31, i32 noundef %32, ptr noundef %33, ptr noundef %34, ptr noundef %35, ptr noundef %36)
  store i32 %37, ptr %9, align 4
  %38 = load ptr, ptr %8, align 8
  %39 = load i32, ptr %9, align 4
  %40 = load ptr, ptr %10, align 8
  %41 = load ptr, ptr %15, align 8
  %42 = load ptr, ptr %12, align 8
  %43 = load ptr, ptr %13, align 8
  %44 = load i32, ptr @hf_sysact_spsysprop_sid, align 4
  %45 = call i32 @dissect_ndr_uint32(ptr noundef %38, i32 noundef %39, ptr noundef %40, ptr noundef %41, ptr noundef %42, ptr noundef %43, i32 noundef %44, ptr noundef null)
  store i32 %45, ptr %9, align 4
  %46 = load ptr, ptr %8, align 8
  %47 = load i32, ptr %9, align 4
  %48 = load ptr, ptr %10, align 8
  %49 = load ptr, ptr %15, align 8
  %50 = load ptr, ptr %12, align 8
  %51 = load ptr, ptr %13, align 8
  %52 = load i32, ptr @hf_sysact_spsysprop_remotethissid, align 4
  %53 = call i32 @dissect_ndr_uint32(ptr noundef %46, i32 noundef %47, ptr noundef %48, ptr noundef %49, ptr noundef %50, ptr noundef %51, i32 noundef %52, ptr noundef null)
  store i32 %53, ptr %9, align 4
  %54 = load ptr, ptr %8, align 8
  %55 = load i32, ptr %9, align 4
  %56 = load ptr, ptr %10, align 8
  %57 = load ptr, ptr %15, align 8
  %58 = load ptr, ptr %12, align 8
  %59 = load ptr, ptr %13, align 8
  %60 = load i32, ptr @hf_sysact_spsysprop_cltimpersonating, align 4
  %61 = call i32 @dissect_ndr_uint32(ptr noundef %54, i32 noundef %55, ptr noundef %56, ptr noundef %57, ptr noundef %58, ptr noundef %59, i32 noundef %60, ptr noundef null)
  store i32 %61, ptr %9, align 4
  %62 = load ptr, ptr %8, align 8
  %63 = load i32, ptr %9, align 4
  %64 = load ptr, ptr %10, align 8
  %65 = load ptr, ptr %15, align 8
  %66 = load ptr, ptr %12, align 8
  %67 = load ptr, ptr %13, align 8
  %68 = load i32, ptr @hf_sysact_spsysprop_partitionid, align 4
  %69 = call i32 @dissect_ndr_uint32(ptr noundef %62, i32 noundef %63, ptr noundef %64, ptr noundef %65, ptr noundef %66, ptr noundef %67, i32 noundef %68, ptr noundef null)
  store i32 %69, ptr %9, align 4
  %70 = load ptr, ptr %8, align 8
  %71 = load i32, ptr %9, align 4
  %72 = load ptr, ptr %10, align 8
  %73 = load ptr, ptr %15, align 8
  %74 = load ptr, ptr %12, align 8
  %75 = load ptr, ptr %13, align 8
  %76 = load i32, ptr @hf_sysact_spsysprop_defauthlvl, align 4
  %77 = call i32 @dissect_ndr_uint32(ptr noundef %70, i32 noundef %71, ptr noundef %72, ptr noundef %73, ptr noundef %74, ptr noundef %75, i32 noundef %76, ptr noundef null)
  store i32 %77, ptr %9, align 4
  %78 = load ptr, ptr %8, align 8
  %79 = load i32, ptr %9, align 4
  %80 = load ptr, ptr %10, align 8
  %81 = load ptr, ptr %15, align 8
  %82 = load ptr, ptr %12, align 8
  %83 = load ptr, ptr %13, align 8
  %84 = load i32, ptr @hf_sysact_spsysprop_partition, align 4
  %85 = call i32 @dissect_dcom_UUID(ptr noundef %78, i32 noundef %79, ptr noundef %80, ptr noundef %81, ptr noundef %82, ptr noundef %83, i32 noundef %84, ptr noundef null)
  store i32 %85, ptr %9, align 4
  %86 = load ptr, ptr %8, align 8
  %87 = load i32, ptr %9, align 4
  %88 = load ptr, ptr %10, align 8
  %89 = load ptr, ptr %15, align 8
  %90 = load ptr, ptr %12, align 8
  %91 = load ptr, ptr %13, align 8
  %92 = load i32, ptr @hf_sysact_spsysprop_procrqstflgs, align 4
  %93 = call i32 @dissect_ndr_uint32(ptr noundef %86, i32 noundef %87, ptr noundef %88, ptr noundef %89, ptr noundef %90, ptr noundef %91, i32 noundef %92, ptr noundef null)
  store i32 %93, ptr %9, align 4
  %94 = load ptr, ptr %8, align 8
  %95 = load i32, ptr %9, align 4
  %96 = load ptr, ptr %10, align 8
  %97 = load ptr, ptr %15, align 8
  %98 = load ptr, ptr %12, align 8
  %99 = load ptr, ptr %13, align 8
  %100 = load i32, ptr @hf_sysact_spsysprop_origclsctx, align 4
  %101 = call i32 @dissect_ndr_uint32(ptr noundef %94, i32 noundef %95, ptr noundef %96, ptr noundef %97, ptr noundef %98, ptr noundef %99, i32 noundef %100, ptr noundef null)
  store i32 %101, ptr %9, align 4
  %102 = load ptr, ptr %8, align 8
  %103 = load i32, ptr %9, align 4
  %104 = load ptr, ptr %10, align 8
  %105 = load ptr, ptr %15, align 8
  %106 = load ptr, ptr %12, align 8
  %107 = load ptr, ptr %13, align 8
  %108 = load i32, ptr @hf_sysact_spsysprop_flags, align 4
  %109 = call i32 @dissect_ndr_uint32(ptr noundef %102, i32 noundef %103, ptr noundef %104, ptr noundef %105, ptr noundef %106, ptr noundef %107, i32 noundef %108, ptr noundef null)
  store i32 %109, ptr %9, align 4
  %110 = load ptr, ptr %15, align 8
  %111 = load ptr, ptr %8, align 8
  %112 = load i32, ptr %9, align 4
  %113 = load i32, ptr @ett_dcom_reserved, align 4
  %114 = call ptr @proto_tree_add_subtree(ptr noundef %110, ptr noundef %111, i32 noundef %112, i32 noundef 32, i32 noundef %113, ptr noundef null, ptr noundef @.str.158)
  store ptr %114, ptr %16, align 8
  store i32 0, ptr %19, align 4
  br label %115

115:                                              ; preds = %127, %24
  %116 = load i32, ptr %19, align 4
  %117 = icmp slt i32 %116, 8
  br i1 %117, label %118, label %130

118:                                              ; preds = %115
  %119 = load ptr, ptr %8, align 8
  %120 = load i32, ptr %9, align 4
  %121 = load ptr, ptr %10, align 8
  %122 = load ptr, ptr %16, align 8
  %123 = load ptr, ptr %12, align 8
  %124 = load ptr, ptr %13, align 8
  %125 = load i32, ptr @hf_sysact_res, align 4
  %126 = call i32 @dissect_ndr_uint32(ptr noundef %119, i32 noundef %120, ptr noundef %121, ptr noundef %122, ptr noundef %123, ptr noundef %124, i32 noundef %125, ptr noundef null)
  store i32 %126, ptr %9, align 4
  br label %127

127:                                              ; preds = %118
  %128 = load i32, ptr %19, align 4
  %129 = add i32 %128, 1
  store i32 %129, ptr %19, align 4
  br label %115, !llvm.loop !6

130:                                              ; preds = %115
  %131 = load i32, ptr %9, align 4
  %132 = load i32, ptr %17, align 4
  %133 = sub i32 %131, %132
  store i32 %133, ptr %18, align 4
  %134 = load i32, ptr %14, align 4
  %135 = load i32, ptr %18, align 4
  %136 = icmp slt i32 %134, %135
  br i1 %136, label %137, label %139

137:                                              ; preds = %130
  %138 = load i32, ptr %18, align 4
  store i32 %138, ptr %14, align 4
  br label %153

139:                                              ; preds = %130
  %140 = load i32, ptr %14, align 4
  %141 = load i32, ptr %18, align 4
  %142 = icmp sgt i32 %140, %141
  br i1 %142, label %143, label %152

143:                                              ; preds = %139
  %144 = load ptr, ptr %15, align 8
  %145 = load i32, ptr @hf_sysact_unused_buffer, align 4
  %146 = load ptr, ptr %8, align 8
  %147 = load i32, ptr %9, align 4
  %148 = load i32, ptr %14, align 4
  %149 = load i32, ptr %18, align 4
  %150 = sub i32 %148, %149
  %151 = call ptr @proto_tree_add_item(ptr noundef %144, i32 noundef %145, ptr noundef %146, i32 noundef %147, i32 noundef %150, i32 noundef 0)
  br label %152

152:                                              ; preds = %143, %139
  br label %153

153:                                              ; preds = %152, %137
  %154 = load i32, ptr %17, align 4
  %155 = load i32, ptr %14, align 4
  %156 = add i32 %154, %155
  store i32 %156, ptr %9, align 4
  %157 = load i32, ptr %9, align 4
  call void @llvm.lifetime.end.p0(i64 4, ptr %19) #5
  call void @llvm.lifetime.end.p0(i64 4, ptr %18) #5
  call void @llvm.lifetime.end.p0(i64 4, ptr %17) #5
  call void @llvm.lifetime.end.p0(i64 8, ptr %16) #5
  call void @llvm.lifetime.end.p0(i64 8, ptr %15) #5
  ret i32 %157
}