; Function Attrs: null_pointer_is_valid sspstrong uwtable
define internal i32 @dissect_dcom_SpecialSystemProperties(ptr noundef %0, i32 noundef %1, ptr noundef %2, ptr noundef %3, ptr noundef %4, ptr noundef %5, i32 noundef %6) #0 {
  %8 = icmp slt i32 %6, 1
  %spec.store.select = select i1 %8, i32 -1, i32 %6
  %9 = load i32, ptr @ett_dcom_spclsysprop, align 4
  %10 = tail call ptr @proto_tree_add_subtree(ptr noundef %3, ptr noundef %0, i32 noundef %1, i32 noundef %spec.store.select, i32 noundef %9, ptr noundef null, ptr noundef nonnull @.str.157)
  %11 = tail call fastcc i32 @dissect_TypeSzCommPrivHdr(ptr noundef %0, i32 noundef %1, ptr noundef %2, ptr noundef %10, ptr noundef %4, ptr noundef %5)
  %12 = load i32, ptr @hf_sysact_spsysprop_sid, align 4
  %13 = tail call i32 @dissect_ndr_uint32(ptr noundef %0, i32 noundef %11, ptr noundef %2, ptr noundef %10, ptr noundef %4, ptr noundef %5, i32 noundef %12, ptr noundef null)
  %14 = load i32, ptr @hf_sysact_spsysprop_remotethissid, align 4
  %15 = tail call i32 @dissect_ndr_uint32(ptr noundef %0, i32 noundef %13, ptr noundef %2, ptr noundef %10, ptr noundef %4, ptr noundef %5, i32 noundef %14, ptr noundef null)
  %16 = load i32, ptr @hf_sysact_spsysprop_cltimpersonating, align 4
  %17 = tail call i32 @dissect_ndr_uint32(ptr noundef %0, i32 noundef %15, ptr noundef %2, ptr noundef %10, ptr noundef %4, ptr noundef %5, i32 noundef %16, ptr noundef null)
  %18 = load i32, ptr @hf_sysact_spsysprop_partitionid, align 4
  %19 = tail call i32 @dissect_ndr_uint32(ptr noundef %0, i32 noundef %17, ptr noundef %2, ptr noundef %10, ptr noundef %4, ptr noundef %5, i32 noundef %18, ptr noundef null)
  %20 = load i32, ptr @hf_sysact_spsysprop_defauthlvl, align 4
  %21 = tail call i32 @dissect_ndr_uint32(ptr noundef %0, i32 noundef %19, ptr noundef %2, ptr noundef %10, ptr noundef %4, ptr noundef %5, i32 noundef %20, ptr noundef null)
  %22 = load i32, ptr @hf_sysact_spsysprop_partition, align 4
  %23 = tail call i32 @dissect_dcom_UUID(ptr noundef %0, i32 noundef %21, ptr noundef %2, ptr noundef %10, ptr noundef %4, ptr noundef %5, i32 noundef %22, ptr noundef null)
  %24 = load i32, ptr @hf_sysact_spsysprop_procrqstflgs, align 4
  %25 = tail call i32 @dissect_ndr_uint32(ptr noundef %0, i32 noundef %23, ptr noundef %2, ptr noundef %10, ptr noundef %4, ptr noundef %5, i32 noundef %24, ptr noundef null)
  %26 = load i32, ptr @hf_sysact_spsysprop_origclsctx, align 4
  %27 = tail call i32 @dissect_ndr_uint32(ptr noundef %0, i32 noundef %25, ptr noundef %2, ptr noundef %10, ptr noundef %4, ptr noundef %5, i32 noundef %26, ptr noundef null)
  %28 = load i32, ptr @hf_sysact_spsysprop_flags, align 4
  %29 = tail call i32 @dissect_ndr_uint32(ptr noundef %0, i32 noundef %27, ptr noundef %2, ptr noundef %10, ptr noundef %4, ptr noundef %5, i32 noundef %28, ptr noundef null)
  %30 = load i32, ptr @ett_dcom_reserved, align 4
  %31 = tail call ptr @proto_tree_add_subtree(ptr noundef %10, ptr noundef %0, i32 noundef %29, i32 noundef 32, i32 noundef %30, ptr noundef null, ptr noundef nonnull @.str.158)
  br label %32

32:                                               ; preds = %7, %32
  %.095 = phi i32 [ 0, %7 ], [ %35, %32 ]
  %.09194 = phi i32 [ %29, %7 ], [ %34, %32 ]
  %33 = load i32, ptr @hf_sysact_res, align 4
  %34 = tail call i32 @dissect_ndr_uint32(ptr noundef %0, i32 noundef %.09194, ptr noundef %2, ptr noundef %31, ptr noundef %4, ptr noundef %5, i32 noundef %33, ptr noundef null)
  %35 = add nuw nsw i32 %.095, 1
  %exitcond.not = icmp eq i32 %35, 8
  br i1 %exitcond.not, label %36, label %32, !llvm.loop !8

36:                                               ; preds = %32
  %37 = sub i32 %34, %1
  %38 = icmp slt i32 %spec.store.select, %37
  br i1 %38, label %45, label %39

39:                                               ; preds = %36
  %40 = icmp sgt i32 %spec.store.select, %37
  br i1 %40, label %41, label %45

41:                                               ; preds = %39
  %42 = load i32, ptr @hf_sysact_unused_buffer, align 4
  %43 = sub i32 %spec.store.select, %37
  %44 = tail call ptr @proto_tree_add_item(ptr noundef %10, i32 noundef %42, ptr noundef %0, i32 noundef %34, i32 noundef %43, i32 noundef 0)
  br label %45

45:                                               ; preds = %36, %39, %41
  %.092 = phi i32 [ %spec.store.select, %41 ], [ %spec.store.select, %39 ], [ %37, %36 ]
  %46 = add i32 %.092, %1
  ret i32 %46
}